; Function Attrs: mustprogress uwtable
define void @_ZN10PacketList16setPacketCommentEj7QString(ptr noundef nonnull align 8 dereferenceable(464) %0, i32 noundef %1, ptr noundef %2) local_unnamed_addr #0 align 2 personality ptr @__gxx_personality_v0 {
  %4 = alloca %class.QModelIndex, align 8
  %5 = alloca %class.QModelIndex, align 8
  %6 = alloca %class.QByteArray, align 8
  call void @_ZNK17QAbstractItemView12currentIndexEv(ptr dead_on_unwind nonnull writable sret(%class.QModelIndex) align 8 %5, ptr noundef nonnull align 8 dereferenceable(40) %0)
  %7 = getelementptr inbounds i8, ptr %0, i64 64
  %8 = load ptr, ptr %7, align 8
  %.not = icmp eq ptr %8, null
  br i1 %.not, label %_ZN10QByteArrayD2Ev.exit12, label %9

9:                                                ; preds = %3
  %10 = getelementptr inbounds i8, ptr %0, i64 40
  %11 = load ptr, ptr %10, align 8
  %.not3 = icmp eq ptr %11, null
  br i1 %.not3, label %_ZN10QByteArrayD2Ev.exit12, label %12

12:                                               ; preds = %9
  call void @_ZN7QString13toUtf8_helperERKS_(ptr dead_on_unwind nonnull writable sret(%class.QByteArray) align 8 %6, ptr noundef nonnull align 8 dereferenceable(24) %2)
  %13 = getelementptr inbounds i8, ptr %6, i64 16
  %14 = load i64, ptr %13, align 8
  %15 = icmp sgt i64 %14, 65535
  br i1 %15, label %16, label %24

16:                                               ; preds = %12
  %17 = invoke ptr (i32, i32, ptr, ...) @simple_dialog(i32 noundef 3, i32 noundef 1, ptr noundef nonnull @.str.71)
          to label %43 unwind label %18

18:                                               ; preds = %.noexc7, %.noexc6, %.noexc5, %37, %.noexc, %26, %24, %16
  %19 = landingpad { ptr, i32 }
          cleanup
  %20 = load ptr, ptr %6, align 8
  %.not.i.i.i = icmp eq ptr %20, null
  br i1 %.not.i.i.i, label %_ZN10QByteArrayD2Ev.exit, label %_ZN17QArrayDataPointerIcE5derefEv.exit.i.i

_ZN17QArrayDataPointerIcE5derefEv.exit.i.i:       ; preds = %18
  %21 = atomicrmw sub ptr %20, i32 1 seq_cst, align 4
  %.not.i.i = icmp eq i32 %21, 1
  br i1 %.not.i.i, label %22, label %_ZN10QByteArrayD2Ev.exit

22:                                               ; preds = %_ZN17QArrayDataPointerIcE5derefEv.exit.i.i
  %23 = load ptr, ptr %6, align 8
  call void @_ZN10QArrayData10deallocateEPS_xx(ptr noundef %23, i64 noundef 1, i64 noundef 8) #20
  br label %_ZN10QByteArrayD2Ev.exit

_ZN10QByteArrayD2Ev.exit:                         ; preds = %18, %_ZN17QArrayDataPointerIcE5derefEv.exit.i.i, %22
  resume { ptr, i32 } %19

24:                                               ; preds = %12
  %25 = load ptr, ptr %10, align 8
  invoke void @_ZN15PacketListModel15setFrameCommentERK11QModelIndexRK10QByteArrayj(ptr noundef nonnull align 8 dereferenceable(164) %25, ptr noundef nonnull align 8 dereferenceable(24) %5, ptr noundef nonnull align 8 dereferenceable(24) %6, i32 noundef %1)
          to label %26 unwind label %18

26:                                               ; preds = %24
  call void @llvm.lifetime.start.p0(i64 24, ptr nonnull %4)
  invoke void @_ZNK17QAbstractItemView12currentIndexEv(ptr dead_on_unwind nonnull writable sret(%class.QModelIndex) align 8 %4, ptr noundef nonnull align 8 dereferenceable(40) %0)
          to label %.noexc unwind label %18

.noexc:                                           ; preds = %26
  %27 = invoke noundef ptr @_ZNK17QAbstractItemView14selectionModelEv(ptr noundef nonnull align 8 dereferenceable(40) %0)
          to label %.noexc4 unwind label %18

.noexc4:                                          ; preds = %.noexc
  %.not.i = icmp eq ptr %27, null
  br i1 %.not.i, label %_ZN10PacketList17drawCurrentPacketEv.exit, label %28

28:                                               ; preds = %.noexc4
  %29 = load i32, ptr %4, align 8
  %30 = icmp sgt i32 %29, -1
  %31 = getelementptr inbounds i8, ptr %4, i64 4
  %32 = load i32, ptr %31, align 4
  %33 = icmp sgt i32 %32, -1
  %or.cond.i.i = select i1 %30, i1 %33, i1 false
  %34 = getelementptr inbounds i8, ptr %4, i64 16
  %35 = load ptr, ptr %34, align 8
  %36 = icmp ne ptr %35, null
  %or.cond.i = select i1 %or.cond.i.i, i1 %36, i1 false
  br i1 %or.cond.i, label %37, label %_ZN10PacketList17drawCurrentPacketEv.exit

37:                                               ; preds = %28
  %38 = invoke noundef ptr @_ZNK17QAbstractItemView14selectionModelEv(ptr noundef nonnull align 8 dereferenceable(40) %0)
          to label %.noexc5 unwind label %18

.noexc5:                                          ; preds = %37
  invoke void @_ZN19QItemSelectionModel14clearSelectionEv(ptr noundef nonnull align 8 dereferenceable(16) %38)
          to label %.noexc6 unwind label %18

.noexc6:                                          ; preds = %.noexc5
  %39 = invoke noundef ptr @_ZNK17QAbstractItemView14selectionModelEv(ptr noundef nonnull align 8 dereferenceable(40) %0)
          to label %.noexc7 unwind label %18

.noexc7:                                          ; preds = %.noexc6
  %40 = load ptr, ptr %39, align 8
  %41 = getelementptr inbounds i8, ptr %40, i64 96
  %42 = load ptr, ptr %41, align 8
  invoke void %42(ptr noundef nonnull align 8 dereferenceable(16) %39, ptr noundef nonnull align 8 dereferenceable(24) %4, i32 50)
          to label %_ZN10PacketList17drawCurrentPacketEv.exit unwind label %18

_ZN10PacketList17drawCurrentPacketEv.exit:        ; preds = %.noexc7, %.noexc4, %28
  call void @llvm.lifetime.end.p0(i64 24, ptr nonnull %4)
  br label %43

43:                                               ; preds = %_ZN10PacketList17drawCurrentPacketEv.exit, %16
  %44 = load ptr, ptr %6, align 8
  %.not.i.i.i9 = icmp eq ptr %44, null
  br i1 %.not.i.i.i9, label %_ZN10QByteArrayD2Ev.exit12, label %_ZN17QArrayDataPointerIcE5derefEv.exit.i.i10

_ZN17QArrayDataPointerIcE5derefEv.exit.i.i10:     ; preds = %43
  %45 = atomicrmw sub ptr %44, i32 1 seq_cst, align 4
  %.not.i.i11 = icmp eq i32 %45, 1
  br i1 %.not.i.i11, label %46, label %_ZN10QByteArrayD2Ev.exit12

46:                                               ; preds = %_ZN17QArrayDataPointerIcE5derefEv.exit.i.i10
  %47 = load ptr, ptr %6, align 8
  call void @_ZN10QArrayData10deallocateEPS_xx(ptr noundef %47, i64 noundef 1, i64 noundef 8) #20
  br label %_ZN10QByteArrayD2Ev.exit12

_ZN10QByteArrayD2Ev.exit12:                       ; preds = %46, %_ZN17QArrayDataPointerIcE5derefEv.exit.i.i10, %43, %3, %9
  ret void
}